target datalayout = "e-m:e-p270:32:32-p271:32:32-p272:64:64-i64:64-i128:128-f80:128-n8:16:32:64-S128"
target triple = "x86_64-pc-linux-gnu"

%struct.curltime = type { i64, i32 }

; Function Attrs: nounwind uwtable
define hidden void @Curl_expire(ptr noundef %0, i64 noundef %1, i32 noundef %2) #0 {
  %4 = alloca ptr, align 8
  %5 = alloca i64, align 8
  %6 = alloca i32, align 4
  %7 = alloca %struct.curltime, align 8
  store ptr %0, ptr %4, align 8, !tbaa !43
  store i64 %1, ptr %5, align 8, !tbaa !3
  store i32 %2, ptr %6, align 4, !tbaa !30
  call void @llvm.lifetime.start.p0(i64 16, ptr %7) #9
  %8 = call { i64, i32 } @Curl_now()
  %9 = getelementptr inbounds nuw { i64, i32 }, ptr %7, i32 0, i32 0
  %10 = extractvalue { i64, i32 } %8, 0
  store i64 %10, ptr %9, align 8
  %11 = getelementptr inbounds nuw { i64, i32 }, ptr %7, i32 0, i32 1
  %12 = extractvalue { i64, i32 } %8, 1
  store i32 %12, ptr %11, align 8
  %13 = load ptr, ptr %4, align 8, !tbaa !43
  %14 = load i64, ptr %5, align 8, !tbaa !3
  %15 = load i32, ptr %6, align 4, !tbaa !30
  call void @expire_ex(ptr noundef %13, ptr noundef %7, i64 noundef %14, i32 noundef %15)
  call void @llvm.lifetime.end.p0(i64 16, ptr %7) #9
  ret void
}