; Function Attrs: nounwind uwtable
define hidden void @Curl_expire(ptr noundef %0, i64 noundef %1, i32 noundef %2) local_unnamed_addr #0 {
  %4 = alloca %struct.curltime, align 8
  call void @llvm.lifetime.start.p0(i64 16, ptr nonnull %4) #19
  %5 = tail call { i64, i32 } @Curl_now() #19
  %6 = extractvalue { i64, i32 } %5, 0
  store i64 %6, ptr %4, align 8
  %7 = getelementptr inbounds nuw i8, ptr %4, i64 8
  %8 = extractvalue { i64, i32 } %5, 1
  store i32 %8, ptr %7, align 8
  call fastcc void @expire_ex(ptr noundef %0, ptr noundef %4, i64 noundef %1, i32 noundef %2)
  call void @llvm.lifetime.end.p0(i64 16, ptr nonnull %4) #19
  ret void
}